target datalayout = "e-m:e-p270:32:32-p271:32:32-p272:64:64-i64:64-i128:128-f80:128-n8:16:32:64-S128"
target triple = "x86_64-pc-linux-gnu"

%struct.mbedtls_psa_aead_operation_t = type { i32, i16, i8, i8, %union.anon }
%union.anon = type { %struct.mbedtls_gcm_context }
%struct.mbedtls_gcm_context = type { %struct.mbedtls_cipher_context_t, [16 x [2 x i64]], i64, i64, [16 x i8], [16 x i8], [16 x i8], i8, i8 }
%struct.mbedtls_cipher_context_t = type { ptr, i32, i32, ptr, ptr, [16 x i8], i64, [16 x i8], i64, ptr, ptr }

; Function Attrs: nounwind uwtable
define hidden i32 @mbedtls_psa_aead_abort(ptr noundef %0) #0 {
  %2 = alloca ptr, align 8
  store ptr %0, ptr %2, align 8, !tbaa !20
  %3 = load ptr, ptr %2, align 8, !tbaa !20
  %4 = getelementptr inbounds nuw %struct.mbedtls_psa_aead_operation_t, ptr %3, i32 0, i32 0
  %5 = load i32, ptr %4, align 8, !tbaa !19
  switch i32 %5, label %15 [
    i32 89129216, label %6
    i32 89129472, label %9
    i32 84935936, label %12
  ]

6:                                                ; preds = %1
  %7 = load ptr, ptr %2, align 8, !tbaa !20
  %8 = getelementptr inbounds nuw %struct.mbedtls_psa_aead_operation_t, ptr %7, i32 0, i32 4
  call void @mbedtls_ccm_free(ptr noundef %8)
  br label %15

9:                                                ; preds = %1
  %10 = load ptr, ptr %2, align 8, !tbaa !20
  %11 = getelementptr inbounds nuw %struct.mbedtls_psa_aead_operation_t, ptr %10, i32 0, i32 4
  call void @mbedtls_gcm_free(ptr noundef %11)
  br label %15

12:                                               ; preds = %1
  %13 = load ptr, ptr %2, align 8, !tbaa !20
  %14 = getelementptr inbounds nuw %struct.mbedtls_psa_aead_operation_t, ptr %13, i32 0, i32 4
  call void @mbedtls_chachapoly_free(ptr noundef %14)
  br label %15

15:                                               ; preds = %1, %12, %9, %6
  %16 = load ptr, ptr %2, align 8, !tbaa !20
  %17 = getelementptr inbounds nuw %struct.mbedtls_psa_aead_operation_t, ptr %16, i32 0, i32 2
  %18 = load i8, ptr %17, align 2
  %19 = and i8 %18, -2
  %20 = or i8 %19, 0
  store i8 %20, ptr %17, align 2
  ret i32 0
}

; Function Attrs: nounwind uwtable
define hidden i32 @mbedtls_psa_aead_encrypt(ptr noundef %0, ptr noundef %1, i64 noundef %2, i32 noundef %3, ptr noundef %4, i64 noundef %5, ptr noundef %6, i64 noundef %7, ptr noundef %8, i64 noundef %9, ptr noundef %10, i64 noundef %11, ptr noundef %12) #0 {
  %14 = alloca i32, align 4
  %15 = alloca ptr, align 8
  %16 = alloca ptr, align 8
  %17 = alloca i64, align 8
  %18 = alloca i32, align 4
  %19 = alloca ptr, align 8
  %20 = alloca i64, align 8
  %21 = alloca ptr, align 8
  %22 = alloca i64, align 8
  %23 = alloca ptr, align 8
  %24 = alloca i64, align 8
  %25 = alloca ptr, align 8
  %26 = alloca i64, align 8
  %27 = alloca ptr, align 8
  %28 = alloca i32, align 4
  %29 = alloca %struct.mbedtls_psa_aead_operation_t, align 8
  %30 = alloca ptr, align 8
  %31 = alloca i32, align 4
  store ptr %0, ptr %15, align 8, !tbaa !3
  store ptr %1, ptr %16, align 8, !tbaa !8
  store i64 %2, ptr %17, align 8, !tbaa !10
  store i32 %3, ptr %18, align 4, !tbaa !12
  store ptr %4, ptr %19, align 8, !tbaa !8
  store i64 %5, ptr %20, align 8, !tbaa !10
  store ptr %6, ptr %21, align 8, !tbaa !8
  store i64 %7, ptr %22, align 8, !tbaa !10
  store ptr %8, ptr %23, align 8, !tbaa !8
  store i64 %9, ptr %24, align 8, !tbaa !10
  store ptr %10, ptr %25, align 8, !tbaa !8
  store i64 %11, ptr %26, align 8, !tbaa !10
  store ptr %12, ptr %27, align 8, !tbaa !14
  call void @llvm.lifetime.start.p0(i64 4, ptr %28) #5
  store i32 -151, ptr %28, align 4, !tbaa !12
  call void @llvm.lifetime.start.p0(i64 432, ptr %29) #5
  call void @llvm.memset.p0.i64(ptr align 8 %29, i8 0, i64 432, i1 false)
  call void @llvm.lifetime.start.p0(i64 8, ptr %30) #5
  %32 = load ptr, ptr %15, align 8, !tbaa !3
  %33 = load ptr, ptr %16, align 8, !tbaa !8
  %34 = load i64, ptr %17, align 8, !tbaa !10
  %35 = load i32, ptr %18, align 4, !tbaa !12
  %36 = call i32 @psa_aead_setup(ptr noundef %29, ptr noundef %32, ptr noundef %33, i64 noundef %34, i32 noundef %35)
  store i32 %36, ptr %28, align 4, !tbaa !12
  %37 = load i32, ptr %28, align 4, !tbaa !12
  %38 = icmp ne i32 %37, 0
  br i1 %38, label %39, label %40

39:                                               ; preds = %13
  br label %125

40:                                               ; preds = %13
  %41 = load i64, ptr %26, align 8, !tbaa !10
  %42 = load i64, ptr %24, align 8, !tbaa !10
  %43 = getelementptr inbounds nuw %struct.mbedtls_psa_aead_operation_t, ptr %29, i32 0, i32 3
  %44 = load i8, ptr %43, align 1, !tbaa !16
  %45 = zext i8 %44 to i64
  %46 = add i64 %42, %45
  %47 = icmp ult i64 %41, %46
  br i1 %47, label %48, label %49

48:                                               ; preds = %40
  store i32 -138, ptr %28, align 4, !tbaa !12
  br label %125

49:                                               ; preds = %40
  %50 = load ptr, ptr %25, align 8, !tbaa !8
  %51 = load i64, ptr %24, align 8, !tbaa !10
  %52 = getelementptr inbounds nuw i8, ptr %50, i64 %51
  store ptr %52, ptr %30, align 8, !tbaa !8
  %53 = getelementptr inbounds nuw %struct.mbedtls_psa_aead_operation_t, ptr %29, i32 0, i32 0
  %54 = load i32, ptr %53, align 8, !tbaa !19
  %55 = icmp eq i32 %54, 89129216
  br i1 %55, label %56, label %71

56:                                               ; preds = %49
  %57 = getelementptr inbounds nuw %struct.mbedtls_psa_aead_operation_t, ptr %29, i32 0, i32 4
  %58 = load i64, ptr %24, align 8, !tbaa !10
  %59 = load ptr, ptr %19, align 8, !tbaa !8
  %60 = load i64, ptr %20, align 8, !tbaa !10
  %61 = load ptr, ptr %21, align 8, !tbaa !8
  %62 = load i64, ptr %22, align 8, !tbaa !10
  %63 = load ptr, ptr %23, align 8, !tbaa !8
  %64 = load ptr, ptr %25, align 8, !tbaa !8
  %65 = load ptr, ptr %30, align 8, !tbaa !8
  %66 = getelementptr inbounds nuw %struct.mbedtls_psa_aead_operation_t, ptr %29, i32 0, i32 3
  %67 = load i8, ptr %66, align 1, !tbaa !16
  %68 = zext i8 %67 to i64
  %69 = call i32 @mbedtls_ccm_encrypt_and_tag(ptr noundef %57, i64 noundef %58, ptr noundef %59, i64 noundef %60, ptr noundef %61, i64 noundef %62, ptr noundef %63, ptr noundef %64, ptr noundef %65, i64 noundef %68)
  %70 = call i32 @mbedtls_to_psa_error(i32 noundef %69)
  store i32 %70, ptr %28, align 4, !tbaa !12
  br label %114

71:                                               ; preds = %49
  %72 = getelementptr inbounds nuw %struct.mbedtls_psa_aead_operation_t, ptr %29, i32 0, i32 0
  %73 = load i32, ptr %72, align 8, !tbaa !19
  %74 = icmp eq i32 %73, 89129472
  br i1 %74, label %75, label %90

75:                                               ; preds = %71
  %76 = getelementptr inbounds nuw %struct.mbedtls_psa_aead_operation_t, ptr %29, i32 0, i32 4
  %77 = load i64, ptr %24, align 8, !tbaa !10
  %78 = load ptr, ptr %19, align 8, !tbaa !8
  %79 = load i64, ptr %20, align 8, !tbaa !10
  %80 = load ptr, ptr %21, align 8, !tbaa !8
  %81 = load i64, ptr %22, align 8, !tbaa !10
  %82 = load ptr, ptr %23, align 8, !tbaa !8
  %83 = load ptr, ptr %25, align 8, !tbaa !8
  %84 = getelementptr inbounds nuw %struct.mbedtls_psa_aead_operation_t, ptr %29, i32 0, i32 3
  %85 = load i8, ptr %84, align 1, !tbaa !16
  %86 = zext i8 %85 to i64
  %87 = load ptr, ptr %30, align 8, !tbaa !8
  %88 = call i32 @mbedtls_gcm_crypt_and_tag(ptr noundef %76, i32 noundef 1, i64 noundef %77, ptr noundef %78, i64 noundef %79, ptr noundef %80, i64 noundef %81, ptr noundef %82, ptr noundef %83, i64 noundef %86, ptr noundef %87)
  %89 = call i32 @mbedtls_to_psa_error(i32 noundef %88)
  store i32 %89, ptr %28, align 4, !tbaa !12
  br label %113

90:                                               ; preds = %71
  %91 = getelementptr inbounds nuw %struct.mbedtls_psa_aead_operation_t, ptr %29, i32 0, i32 0
  %92 = load i32, ptr %91, align 8, !tbaa !19
  %93 = icmp eq i32 %92, 84935936
  br i1 %93, label %94, label %111

94:                                               ; preds = %90
  %95 = getelementptr inbounds nuw %struct.mbedtls_psa_aead_operation_t, ptr %29, i32 0, i32 3
  %96 = load i8, ptr %95, align 1, !tbaa !16
  %97 = zext i8 %96 to i32
  %98 = icmp ne i32 %97, 16
  br i1 %98, label %99, label %100

99:                                               ; preds = %94
  store i32 -134, ptr %28, align 4, !tbaa !12
  br label %125

100:                                              ; preds = %94
  %101 = getelementptr inbounds nuw %struct.mbedtls_psa_aead_operation_t, ptr %29, i32 0, i32 4
  %102 = load i64, ptr %24, align 8, !tbaa !10
  %103 = load ptr, ptr %19, align 8, !tbaa !8
  %104 = load ptr, ptr %21, align 8, !tbaa !8
  %105 = load i64, ptr %22, align 8, !tbaa !10
  %106 = load ptr, ptr %23, align 8, !tbaa !8
  %107 = load ptr, ptr %25, align 8, !tbaa !8
  %108 = load ptr, ptr %30, align 8, !tbaa !8
  %109 = call i32 @mbedtls_chachapoly_encrypt_and_tag(ptr noundef %101, i64 noundef %102, ptr noundef %103, ptr noundef %104, i64 noundef %105, ptr noundef %106, ptr noundef %107, ptr noundef %108)
  %110 = call i32 @mbedtls_to_psa_error(i32 noundef %109)
  store i32 %110, ptr %28, align 4, !tbaa !12
  br label %112

111:                                              ; preds = %90
  store i32 -134, ptr %14, align 4
  store i32 1, ptr %31, align 4
  br label %128

112:                                              ; preds = %100
  br label %113

113:                                              ; preds = %112, %75
  br label %114

114:                                              ; preds = %113, %56
  %115 = load i32, ptr %28, align 4, !tbaa !12
  %116 = icmp eq i32 %115, 0
  br i1 %116, label %117, label %124

117:                                              ; preds = %114
  %118 = load i64, ptr %24, align 8, !tbaa !10
  %119 = getelementptr inbounds nuw %struct.mbedtls_psa_aead_operation_t, ptr %29, i32 0, i32 3
  %120 = load i8, ptr %119, align 1, !tbaa !16
  %121 = zext i8 %120 to i64
  %122 = add i64 %118, %121
  %123 = load ptr, ptr %27, align 8, !tbaa !14
  store i64 %122, ptr %123, align 8, !tbaa !10
  br label %124

124:                                              ; preds = %117, %114
  br label %125

125:                                              ; preds = %124, %99, %48, %39
  %126 = call i32 @mbedtls_psa_aead_abort(ptr noundef %29)
  %127 = load i32, ptr %28, align 4, !tbaa !12
  store i32 %127, ptr %14, align 4
  store i32 1, ptr %31, align 4
  br label %128

128:                                              ; preds = %125, %111
  call void @llvm.lifetime.end.p0(i64 8, ptr %30) #5
  call void @llvm.lifetime.end.p0(i64 432, ptr %29) #5
  call void @llvm.lifetime.end.p0(i64 4, ptr %28) #5
  %129 = load i32, ptr %14, align 4
  ret i32 %129
}