; Function Attrs: nounwind uwtable
define hidden i32 @mbedtls_psa_aead_encrypt(ptr noundef readonly captures(none) %0, ptr noundef %1, i64 noundef %2, i32 noundef %3, ptr noundef %4, i64 noundef %5, ptr noundef %6, i64 noundef %7, ptr noundef %8, i64 noundef %9, ptr noundef %10, i64 noundef %11, ptr noundef writeonly captures(none) %12) local_unnamed_addr #0 {
  %14 = alloca %struct.mbedtls_psa_aead_operation_t, align 8
  call void @llvm.lifetime.start.p0(i64 432, ptr nonnull %14) #4
  call void @llvm.memset.p0.i64(ptr noundef nonnull align 8 dereferenceable(432) %14, i8 0, i64 432, i1 false)
  %15 = call fastcc i32 @psa_aead_setup(ptr noundef nonnull %14, ptr noundef %0, ptr noundef %1, i32 noundef %3)
  %.not = icmp eq i32 %15, 0
  br i1 %.not, label %16, label %42

16:                                               ; preds = %13
  %17 = getelementptr inbounds nuw i8, ptr %14, i64 7
  %18 = load i8, ptr %17, align 1, !tbaa !3
  %19 = zext i8 %18 to i64
  %20 = add i64 %9, %19
  %21 = icmp ult i64 %11, %20
  br i1 %21, label %42, label %22

22:                                               ; preds = %16
  %23 = getelementptr inbounds nuw i8, ptr %10, i64 %9
  %24 = load i32, ptr %14, align 8, !tbaa !9
  switch i32 %24, label %mbedtls_psa_aead_abort.exit [
    i32 89129216, label %25
    i32 89129472, label %28
    i32 84935936, label %31
  ]

25:                                               ; preds = %22
  %26 = getelementptr inbounds nuw i8, ptr %14, i64 8
  %27 = call i32 @mbedtls_ccm_encrypt_and_tag(ptr noundef nonnull %26, i64 noundef %9, ptr noundef %4, i64 noundef %5, ptr noundef %6, i64 noundef %7, ptr noundef %8, ptr noundef %10, ptr noundef %23, i64 noundef %19) #4
  br label %35

28:                                               ; preds = %22
  %29 = getelementptr inbounds nuw i8, ptr %14, i64 8
  %30 = call i32 @mbedtls_gcm_crypt_and_tag(ptr noundef nonnull %29, i32 noundef 1, i64 noundef %9, ptr noundef %4, i64 noundef %5, ptr noundef %6, i64 noundef %7, ptr noundef %8, ptr noundef %10, i64 noundef %19, ptr noundef %23) #4
  br label %35

31:                                               ; preds = %22
  %.not39 = icmp eq i8 %18, 16
  br i1 %.not39, label %32, label %.thread

32:                                               ; preds = %31
  %33 = getelementptr inbounds nuw i8, ptr %14, i64 8
  %34 = call i32 @mbedtls_chachapoly_encrypt_and_tag(ptr noundef nonnull %33, i64 noundef %9, ptr noundef %4, ptr noundef %6, i64 noundef %7, ptr noundef %8, ptr noundef %10, ptr noundef %23) #4
  br label %35

35:                                               ; preds = %28, %32, %25
  %.sink = phi i32 [ %30, %28 ], [ %34, %32 ], [ %27, %25 ]
  %36 = call i32 @mbedtls_to_psa_error(i32 noundef %.sink) #4
  %37 = icmp eq i32 %36, 0
  br i1 %37, label %38, label %42

38:                                               ; preds = %35
  %39 = load i8, ptr %17, align 1, !tbaa !3
  %40 = zext i8 %39 to i64
  %41 = add i64 %9, %40
  store i64 %41, ptr %12, align 8, !tbaa !10
  br label %42

42:                                               ; preds = %16, %35, %38, %13
  %.036.ph = phi i32 [ -138, %16 ], [ %36, %35 ], [ 0, %38 ], [ %15, %13 ]
  %.pr = load i32, ptr %14, align 8, !tbaa !9
  switch i32 %.pr, label %mbedtls_psa_aead_abort.exit [
    i32 89129216, label %43
    i32 89129472, label %45
    i32 84935936, label %.thread
  ]

43:                                               ; preds = %42
  %44 = getelementptr inbounds nuw i8, ptr %14, i64 8
  call void @mbedtls_ccm_free(ptr noundef nonnull %44) #4
  br label %mbedtls_psa_aead_abort.exit

45:                                               ; preds = %42
  %46 = getelementptr inbounds nuw i8, ptr %14, i64 8
  call void @mbedtls_gcm_free(ptr noundef nonnull %46) #4
  br label %mbedtls_psa_aead_abort.exit

.thread:                                          ; preds = %31, %42
  %.03641 = phi i32 [ %.036.ph, %42 ], [ -134, %31 ]
  %47 = getelementptr inbounds nuw i8, ptr %14, i64 8
  call void @mbedtls_chachapoly_free(ptr noundef nonnull %47) #4
  br label %mbedtls_psa_aead_abort.exit

mbedtls_psa_aead_abort.exit:                      ; preds = %.thread, %45, %43, %42, %22
  %.0 = phi i32 [ -134, %22 ], [ %.036.ph, %42 ], [ %.036.ph, %43 ], [ %.036.ph, %45 ], [ %.03641, %.thread ]
  call void @llvm.lifetime.end.p0(i64 432, ptr nonnull %14) #4
  ret i32 %.0
}